target datalayout = "e-m:e-p270:32:32-p271:32:32-p272:64:64-i64:64-i128:128-f80:128-n8:16:32:64-S128"
target triple = "x86_64-unknown-linux-gnu"

%struct.Range = type { i64, i64 }
%struct._GList = type { ptr, ptr, ptr }

@.str.1 = private unnamed_addr constant [21 x i8] c"../qemu/util/range.c\00", align 1
@.str.2 = private unnamed_addr constant [22 x i8] c"!range_is_empty(data)\00", align 1
@__PRETTY_FUNCTION__.range_list_insert = private unnamed_addr constant [43 x i8] c"GList *range_list_insert(GList *, Range *)\00", align 1
@.str.3 = private unnamed_addr constant [14 x i8] c"new_l == list\00", align 1
@.str.4 = private unnamed_addr constant [57 x i8] c"range->lob <= range->upb || range->lob == range->upb + 1\00", align 1
@.str.5 = private unnamed_addr constant [99 x i8] c"/home/dtcxzyw/WorkSpace/Projects/compilers/llvm-opt-benchmark/bench/qemu/qemu/include/qemu/range.h\00", align 1
@__PRETTY_FUNCTION__.range_invariant = private unnamed_addr constant [36 x i8] c"void range_invariant(const Range *)\00", align 1

; Function Attrs: nounwind sspstrong uwtable
define internal void @range_invariant(ptr noundef %range) #0 {
entry:
  %range.addr = alloca ptr, align 8
  store ptr %range, ptr %range.addr, align 8
  %0 = load ptr, ptr %range.addr, align 8
  %lob = getelementptr inbounds %struct.Range, ptr %0, i32 0, i32 0
  %1 = load i64, ptr %lob, align 8
  %2 = load ptr, ptr %range.addr, align 8
  %upb = getelementptr inbounds %struct.Range, ptr %2, i32 0, i32 1
  %3 = load i64, ptr %upb, align 8
  %cmp = icmp ule i64 %1, %3
  br i1 %cmp, label %if.then, label %lor.lhs.false

lor.lhs.false:                                    ; preds = %entry
  %4 = load ptr, ptr %range.addr, align 8
  %lob1 = getelementptr inbounds %struct.Range, ptr %4, i32 0, i32 0
  %5 = load i64, ptr %lob1, align 8
  %6 = load ptr, ptr %range.addr, align 8
  %upb2 = getelementptr inbounds %struct.Range, ptr %6, i32 0, i32 1
  %7 = load i64, ptr %upb2, align 8
  %add = add i64 %7, 1
  %cmp3 = icmp eq i64 %5, %add
  br i1 %cmp3, label %if.then, label %if.else

if.then:                                          ; preds = %lor.lhs.false, %entry
  br label %if.end

if.else:                                          ; preds = %lor.lhs.false
  call void @__assert_fail(ptr noundef @.str.4, ptr noundef @.str.5, i32 noundef 41, ptr noundef @__PRETTY_FUNCTION__.range_invariant) #5
  unreachable

if.end:                                           ; preds = %if.then
  ret void
}

; Function Attrs: nounwind sspstrong uwtable
define internal zeroext i1 @range_is_empty(ptr noundef %range) #0 {
entry:
  %range.addr = alloca ptr, align 8
  store ptr %range, ptr %range.addr, align 8
  %0 = load ptr, ptr %range.addr, align 8
  call void @range_invariant(ptr noundef %0)
  %1 = load ptr, ptr %range.addr, align 8
  %lob = getelementptr inbounds %struct.Range, ptr %1, i32 0, i32 0
  %2 = load i64, ptr %lob, align 8
  %3 = load ptr, ptr %range.addr, align 8
  %upb = getelementptr inbounds %struct.Range, ptr %3, i32 0, i32 1
  %4 = load i64, ptr %upb, align 8
  %cmp = icmp ugt i64 %2, %4
  ret i1 %cmp
}

; Function Attrs: nounwind sspstrong uwtable
define dso_local ptr @range_list_insert(ptr noundef %list, ptr noundef %data) #0 {
entry:
  %retval = alloca ptr, align 8
  %list.addr = alloca ptr, align 8
  %data.addr = alloca ptr, align 8
  %l = alloca ptr, align 8
  %new_l = alloca ptr, align 8
  store ptr %list, ptr %list.addr, align 8
  store ptr %data, ptr %data.addr, align 8
  %0 = load ptr, ptr %data.addr, align 8
  %call = call zeroext i1 @range_is_empty(ptr noundef %0)
  br i1 %call, label %if.else, label %if.then

if.then:                                          ; preds = %entry
  br label %if.end

if.else:                                          ; preds = %entry
  call void @__assert_fail(ptr noundef @.str.2, ptr noundef @.str.1, i32 noundef 42, ptr noundef @__PRETTY_FUNCTION__.range_list_insert) #5
  unreachable

if.end:                                           ; preds = %if.then
  %1 = load ptr, ptr %list.addr, align 8
  store ptr %1, ptr %l, align 8
  br label %for.cond

for.cond:                                         ; preds = %for.inc, %if.end
  %2 = load ptr, ptr %l, align 8
  %tobool = icmp ne ptr %2, null
  br i1 %tobool, label %land.rhs, label %land.end

land.rhs:                                         ; preds = %for.cond
  %3 = load ptr, ptr %l, align 8
  %data1 = getelementptr inbounds %struct._GList, ptr %3, i32 0, i32 0
  %4 = load ptr, ptr %data1, align 8
  %5 = load ptr, ptr %data.addr, align 8
  %call2 = call i32 @range_compare(ptr noundef %4, ptr noundef %5)
  %cmp = icmp slt i32 %call2, 0
  br label %land.end

land.end:                                         ; preds = %land.rhs, %for.cond
  %6 = phi i1 [ false, %for.cond ], [ %cmp, %land.rhs ]
  br i1 %6, label %for.body, label %for.end

for.body:                                         ; preds = %land.end
  br label %for.inc

for.inc:                                          ; preds = %for.body
  %7 = load ptr, ptr %l, align 8
  %next = getelementptr inbounds %struct._GList, ptr %7, i32 0, i32 1
  %8 = load ptr, ptr %next, align 8
  store ptr %8, ptr %l, align 8
  br label %for.cond, !llvm.loop !5

for.end:                                          ; preds = %land.end
  %9 = load ptr, ptr %l, align 8
  %tobool3 = icmp ne ptr %9, null
  br i1 %tobool3, label %lor.lhs.false, label %if.then7

lor.lhs.false:                                    ; preds = %for.end
  %10 = load ptr, ptr %l, align 8
  %data4 = getelementptr inbounds %struct._GList, ptr %10, i32 0, i32 0
  %11 = load ptr, ptr %data4, align 8
  %12 = load ptr, ptr %data.addr, align 8
  %call5 = call i32 @range_compare(ptr noundef %11, ptr noundef %12)
  %cmp6 = icmp sgt i32 %call5, 0
  br i1 %cmp6, label %if.then7, label %if.end9

if.then7:                                         ; preds = %lor.lhs.false, %for.end
  %13 = load ptr, ptr %list.addr, align 8
  %14 = load ptr, ptr %l, align 8
  %15 = load ptr, ptr %data.addr, align 8
  %call8 = call ptr @g_list_insert_before(ptr noundef %13, ptr noundef %14, ptr noundef %15)
  store ptr %call8, ptr %retval, align 8
  br label %return

if.end9:                                          ; preds = %lor.lhs.false
  %16 = load ptr, ptr %l, align 8
  %data10 = getelementptr inbounds %struct._GList, ptr %16, i32 0, i32 0
  %17 = load ptr, ptr %data10, align 8
  %18 = load ptr, ptr %data.addr, align 8
  call void @range_extend(ptr noundef %17, ptr noundef %18)
  %19 = load ptr, ptr %data.addr, align 8
  call void @g_free(ptr noundef %19)
  br label %while.cond

while.cond:                                       ; preds = %if.end30, %if.end9
  %20 = load ptr, ptr %l, align 8
  %next11 = getelementptr inbounds %struct._GList, ptr %20, i32 0, i32 1
  %21 = load ptr, ptr %next11, align 8
  %tobool12 = icmp ne ptr %21, null
  br i1 %tobool12, label %land.rhs13, label %land.end19

land.rhs13:                                       ; preds = %while.cond
  %22 = load ptr, ptr %l, align 8
  %data14 = getelementptr inbounds %struct._GList, ptr %22, i32 0, i32 0
  %23 = load ptr, ptr %data14, align 8
  %24 = load ptr, ptr %l, align 8
  %next15 = getelementptr inbounds %struct._GList, ptr %24, i32 0, i32 1
  %25 = load ptr, ptr %next15, align 8
  %data16 = getelementptr inbounds %struct._GList, ptr %25, i32 0, i32 0
  %26 = load ptr, ptr %data16, align 8
  %call17 = call i32 @range_compare(ptr noundef %23, ptr noundef %26)
  %cmp18 = icmp eq i32 %call17, 0
  br label %land.end19

land.end19:                                       ; preds = %land.rhs13, %while.cond
  %27 = phi i1 [ false, %while.cond ], [ %cmp18, %land.rhs13 ]
  br i1 %27, label %while.body, label %while.end

while.body:                                       ; preds = %land.end19
  %28 = load ptr, ptr %l, align 8
  %data20 = getelementptr inbounds %struct._GList, ptr %28, i32 0, i32 0
  %29 = load ptr, ptr %data20, align 8
  %30 = load ptr, ptr %l, align 8
  %next21 = getelementptr inbounds %struct._GList, ptr %30, i32 0, i32 1
  %31 = load ptr, ptr %next21, align 8
  %data22 = getelementptr inbounds %struct._GList, ptr %31, i32 0, i32 0
  %32 = load ptr, ptr %data22, align 8
  call void @range_extend(ptr noundef %29, ptr noundef %32)
  %33 = load ptr, ptr %l, align 8
  %next23 = getelementptr inbounds %struct._GList, ptr %33, i32 0, i32 1
  %34 = load ptr, ptr %next23, align 8
  %data24 = getelementptr inbounds %struct._GList, ptr %34, i32 0, i32 0
  %35 = load ptr, ptr %data24, align 8
  call void @g_free(ptr noundef %35)
  %36 = load ptr, ptr %list.addr, align 8
  %37 = load ptr, ptr %l, align 8
  %next25 = getelementptr inbounds %struct._GList, ptr %37, i32 0, i32 1
  %38 = load ptr, ptr %next25, align 8
  %call26 = call ptr @g_list_delete_link(ptr noundef %36, ptr noundef %38)
  store ptr %call26, ptr %new_l, align 8
  %39 = load ptr, ptr %new_l, align 8
  %40 = load ptr, ptr %list.addr, align 8
  %cmp27 = icmp eq ptr %39, %40
  br i1 %cmp27, label %if.then28, label %if.else29

if.then28:                                        ; preds = %while.body
  br label %if.end30

if.else29:                                        ; preds = %while.body
  call void @__assert_fail(ptr noundef @.str.3, ptr noundef @.str.1, i32 noundef 64, ptr noundef @__PRETTY_FUNCTION__.range_list_insert) #5
  unreachable

if.end30:                                         ; preds = %if.then28
  br label %while.cond, !llvm.loop !7

while.end:                                        ; preds = %land.end19
  %41 = load ptr, ptr %list.addr, align 8
  store ptr %41, ptr %retval, align 8
  br label %return

return:                                           ; preds = %while.end, %if.then7
  %42 = load ptr, ptr %retval, align 8
  ret ptr %42
}