; Function Attrs: nounwind sspstrong uwtable
define dso_local ptr @range_list_insert(ptr noundef %list, ptr noundef %data) local_unnamed_addr #0 {
entry:
  %data.val = load i64, ptr %data, align 8
  %0 = getelementptr i8, ptr %data, i64 8
  %data.val23 = load i64, ptr %0, align 8
  %cmp.not.i.i = icmp ule i64 %data.val, %data.val23
  %add.i.i = add i64 %data.val23, 1
  %cmp3.i.i = icmp eq i64 %data.val, %add.i.i
  %or.cond.i.i = or i1 %cmp.not.i.i, %cmp3.i.i
  br i1 %or.cond.i.i, label %range_is_empty.exit, label %if.else.i.i

if.else.i.i:                                      ; preds = %entry
  tail call void @__assert_fail(ptr noundef nonnull @.str.4, ptr noundef nonnull @.str.5, i32 noundef 41, ptr noundef nonnull @__PRETTY_FUNCTION__.range_invariant) #6
  unreachable

range_is_empty.exit:                              ; preds = %entry
  %cmp.i = icmp ugt i64 %data.val, %data.val23
  br i1 %cmp.i, label %if.else, label %for.cond.preheader

for.cond.preheader:                               ; preds = %range_is_empty.exit
  %tobool.not26 = icmp eq ptr %list, null
  br i1 %tobool.not26, label %if.then7, label %land.rhs

if.else:                                          ; preds = %range_is_empty.exit
  tail call void @__assert_fail(ptr noundef nonnull @.str.2, ptr noundef nonnull @.str.1, i32 noundef 42, ptr noundef nonnull @__PRETTY_FUNCTION__.range_list_insert) #6
  unreachable

land.rhs:                                         ; preds = %for.cond.preheader, %for.inc
  %l.027 = phi ptr [ %2, %for.inc ], [ %list, %for.cond.preheader ]
  %1 = load ptr, ptr %l.027, align 8
  %call2 = tail call i32 @range_compare(ptr noundef %1, ptr noundef nonnull %data)
  %cmp = icmp slt i32 %call2, 0
  br i1 %cmp, label %for.inc, label %lor.lhs.false

for.inc:                                          ; preds = %land.rhs
  %next = getelementptr inbounds nuw i8, ptr %l.027, i64 8
  %2 = load ptr, ptr %next, align 8
  %tobool.not = icmp eq ptr %2, null
  br i1 %tobool.not, label %if.then7, label %land.rhs, !llvm.loop !5

lor.lhs.false:                                    ; preds = %land.rhs
  %3 = load ptr, ptr %l.027, align 8
  %call5 = tail call i32 @range_compare(ptr noundef %3, ptr noundef nonnull %data)
  %cmp6 = icmp sgt i32 %call5, 0
  br i1 %cmp6, label %if.then7, label %if.end9

if.then7:                                         ; preds = %for.inc, %for.cond.preheader, %lor.lhs.false
  %l.025 = phi ptr [ %l.027, %lor.lhs.false ], [ null, %for.cond.preheader ], [ null, %for.inc ]
  %call8 = tail call ptr @g_list_insert_before(ptr noundef %list, ptr noundef %l.025, ptr noundef nonnull %data) #7
  br label %return

if.end9:                                          ; preds = %lor.lhs.false
  %4 = load ptr, ptr %l.027, align 8
  tail call fastcc void @range_extend(ptr noundef %4, ptr noundef nonnull %data)
  tail call void @g_free(ptr noundef nonnull %data) #7
  %next11 = getelementptr inbounds nuw i8, ptr %l.027, i64 8
  br label %while.cond

while.cond:                                       ; preds = %while.body, %if.end9
  %5 = load ptr, ptr %next11, align 8
  %tobool12.not = icmp eq ptr %5, null
  br i1 %tobool12.not, label %return, label %land.rhs13

land.rhs13:                                       ; preds = %while.cond
  %6 = load ptr, ptr %l.027, align 8
  %7 = load ptr, ptr %5, align 8
  %call17 = tail call i32 @range_compare(ptr noundef %6, ptr noundef %7)
  %cmp18 = icmp eq i32 %call17, 0
  br i1 %cmp18, label %while.body, label %return

while.body:                                       ; preds = %land.rhs13
  %8 = load ptr, ptr %l.027, align 8
  %9 = load ptr, ptr %next11, align 8
  %10 = load ptr, ptr %9, align 8
  tail call fastcc void @range_extend(ptr noundef %8, ptr noundef %10)
  %11 = load ptr, ptr %next11, align 8
  %12 = load ptr, ptr %11, align 8
  tail call void @g_free(ptr noundef %12) #7
  %13 = load ptr, ptr %next11, align 8
  %call26 = tail call ptr @g_list_delete_link(ptr noundef nonnull %list, ptr noundef %13) #7
  %cmp27 = icmp eq ptr %call26, %list
  br i1 %cmp27, label %while.cond, label %if.else29, !llvm.loop !7

if.else29:                                        ; preds = %while.body
  tail call void @__assert_fail(ptr noundef nonnull @.str.3, ptr noundef nonnull @.str.1, i32 noundef 64, ptr noundef nonnull @__PRETTY_FUNCTION__.range_list_insert) #6
  unreachable

return:                                           ; preds = %land.rhs13, %while.cond, %if.then7
  %retval.0 = phi ptr [ %call8, %if.then7 ], [ %list, %while.cond ], [ %list, %land.rhs13 ]
  ret ptr %retval.0
}